; Function Attrs: mustprogress nofree norecurse nosync nounwind willreturn memory(argmem: readwrite) uwtable
define void @_ZN3gmx23CheckpointHelperBuilderC2ESt10unique_ptrINS_24ReadCheckpointDataHolderESt14default_deleteIS2_EENS_16StartingBehaviorEP9t_commrec(ptr noundef nonnull align 8 dereferenceable(84) %0, ptr nocapture noundef %1, i32 noundef %2, ptr noundef %3) unnamed_addr #14 align 2 personality ptr @__gxx_personality_v0 {
  %5 = getelementptr inbounds i8, ptr %0, i64 8
  store i32 0, ptr %5, align 8
  %6 = getelementptr inbounds i8, ptr %0, i64 16
  store ptr null, ptr %6, align 8
  %7 = getelementptr inbounds i8, ptr %0, i64 24
  store ptr %5, ptr %7, align 8
  %8 = getelementptr inbounds i8, ptr %0, i64 32
  store ptr %5, ptr %8, align 8
  %9 = getelementptr inbounds i8, ptr %0, i64 40
  store i64 0, ptr %9, align 8
  %10 = getelementptr inbounds i8, ptr %0, i64 48
  %11 = icmp ne i32 %2, 2
  %12 = zext i1 %11 to i8
  store i8 %12, ptr %10, align 8
  %13 = getelementptr inbounds i8, ptr %0, i64 56
  %14 = load i64, ptr %1, align 8
  store i64 %14, ptr %13, align 8
  store ptr null, ptr %1, align 8
  %15 = getelementptr inbounds i8, ptr %0, i64 64
  store ptr null, ptr %15, align 8
  %16 = getelementptr inbounds i8, ptr %0, i64 72
  store ptr %3, ptr %16, align 8
  %17 = getelementptr inbounds i8, ptr %0, i64 80
  store i32 0, ptr %17, align 8
  ret void
}